target datalayout = "e-m:e-p270:32:32-p271:32:32-p272:64:64-i64:64-i128:128-f80:128-n8:16:32:64-S128"
target triple = "x86_64-pc-linux-gnu"

%struct.PJconsts = type { ptr, ptr, ptr, ptr, ptr, ptr, ptr, ptr, ptr, ptr, ptr, ptr, i32, ptr, ptr, ptr, ptr, ptr, ptr, ptr, ptr, double, double, double, double, double, double, double, double, double, double, double, double, double, double, double, double, double, double, double, double, double, double, i32, i32, i32, i32, i32, i32, i32, i32, i32, i32, i32, ptr, ptr, ptr, ptr, ptr, ptr, double, double, double, double, double, double, double, double, double, double, double, i32, [7 x double], i32, ptr, ptr, double, double, i32, [4 x i8], %"class.std::shared_ptr", i8, double, i8, %"class.std::__cxx11::basic_string", %"class.std::__cxx11::basic_string", %"class.std::__cxx11::basic_string", i8, %"class.std::vector", i32, %"class.std::vector.3", i32, i8, i8, i8, ptr }
%"class.std::shared_ptr" = type { %"class.std::__shared_ptr" }
%"class.std::__shared_ptr" = type { ptr, %"class.std::__shared_count" }
%"class.std::__shared_count" = type { ptr }
%"class.std::__cxx11::basic_string" = type { %"struct.std::__cxx11::basic_string<char>::_Alloc_hider", i64, %union.anon }
%"struct.std::__cxx11::basic_string<char>::_Alloc_hider" = type { ptr }
%union.anon = type { i64, [8 x i8] }
%"class.std::vector" = type { %"struct.std::_Vector_base" }
%"struct.std::_Vector_base" = type { %"struct.std::_Vector_base<osgeo::proj::operation::GridDescription, std::allocator<osgeo::proj::operation::GridDescription>>::_Vector_impl" }
%"struct.std::_Vector_base<osgeo::proj::operation::GridDescription, std::allocator<osgeo::proj::operation::GridDescription>>::_Vector_impl" = type { %"struct.std::_Vector_base<osgeo::proj::operation::GridDescription, std::allocator<osgeo::proj::operation::GridDescription>>::_Vector_impl_data" }
%"struct.std::_Vector_base<osgeo::proj::operation::GridDescription, std::allocator<osgeo::proj::operation::GridDescription>>::_Vector_impl_data" = type { ptr, ptr, ptr }
%"class.std::vector.3" = type { %"struct.std::_Vector_base.4" }
%"struct.std::_Vector_base.4" = type { %"struct.std::_Vector_base<PJCoordOperation, std::allocator<PJCoordOperation>>::_Vector_impl" }
%"struct.std::_Vector_base<PJCoordOperation, std::allocator<PJCoordOperation>>::_Vector_impl" = type { %"struct.std::_Vector_base<PJCoordOperation, std::allocator<PJCoordOperation>>::_Vector_impl_data" }
%"struct.std::_Vector_base<PJCoordOperation, std::allocator<PJCoordOperation>>::_Vector_impl_data" = type { ptr, ptr, ptr }
%struct.ARG_list = type { ptr, i8, [0 x i8] }

@.str.1 = private unnamed_addr constant [2 x i8] c"R\00", align 1
@.str.8 = private unnamed_addr constant [2 x i8] c"a\00", align 1
@.str.9 = private unnamed_addr constant [21 x i8] c"Major axis not given\00", align 1
@.str.10 = private unnamed_addr constant [29 x i8] c"Invalid value for major axis\00", align 1

; Function Attrs: mustprogress nounwind uwtable
define internal noundef ptr @_ZL14pj_param_valueP8ARG_list(ptr noundef %0) #4 {
  %2 = alloca ptr, align 8
  %3 = alloca ptr, align 8
  %4 = alloca ptr, align 8
  %5 = alloca ptr, align 8
  %6 = alloca i32, align 4
  store ptr %0, ptr %3, align 8, !tbaa !46
  call void @llvm.lifetime.start.p0(i64 8, ptr %4) #16
  call void @llvm.lifetime.start.p0(i64 8, ptr %5) #16
  %7 = load ptr, ptr %3, align 8, !tbaa !46
  %8 = icmp eq ptr null, %7
  br i1 %8, label %9, label %10

9:                                                ; preds = %1
  store ptr null, ptr %2, align 8
  store i32 1, ptr %6, align 4
  br label %25

10:                                               ; preds = %1
  %11 = load ptr, ptr %3, align 8, !tbaa !46
  %12 = getelementptr inbounds nuw %struct.ARG_list, ptr %11, i32 0, i32 2
  %13 = getelementptr inbounds [0 x i8], ptr %12, i64 0, i64 0
  store ptr %13, ptr %4, align 8, !tbaa !10
  %14 = load ptr, ptr %4, align 8, !tbaa !10
  %15 = call noundef ptr @strchr(ptr noundef %14, i32 noundef 61) #17
  store ptr %15, ptr %5, align 8, !tbaa !10
  %16 = load ptr, ptr %5, align 8, !tbaa !10
  %17 = icmp ne ptr %16, null
  br i1 %17, label %18, label %21

18:                                               ; preds = %10
  %19 = load ptr, ptr %5, align 8, !tbaa !10
  %20 = getelementptr inbounds i8, ptr %19, i64 1
  br label %23

21:                                               ; preds = %10
  %22 = load ptr, ptr %4, align 8, !tbaa !10
  br label %23

23:                                               ; preds = %21, %18
  %24 = phi ptr [ %20, %18 ], [ %22, %21 ]
  store ptr %24, ptr %2, align 8
  store i32 1, ptr %6, align 4
  br label %25

25:                                               ; preds = %23, %9
  call void @llvm.lifetime.end.p0(i64 8, ptr %5) #16
  call void @llvm.lifetime.end.p0(i64 8, ptr %4) #16
  %26 = load ptr, ptr %2, align 8
  ret ptr %26
}

; Function Attrs: mustprogress nounwind uwtable
define internal noundef ptr @_ZL12pj_get_paramP8ARG_listPKc(ptr noundef %0, ptr noundef %1) #4 {
  %3 = alloca ptr, align 8
  %4 = alloca ptr, align 8
  %5 = alloca i64, align 8
  store ptr %0, ptr %3, align 8, !tbaa !46
  store ptr %1, ptr %4, align 8, !tbaa !10
  call void @llvm.lifetime.start.p0(i64 8, ptr %5) #16
  %6 = load ptr, ptr %4, align 8, !tbaa !10
  %7 = call i64 @strlen(ptr noundef %6) #17
  store i64 %7, ptr %5, align 8, !tbaa !47
  br label %8

8:                                                ; preds = %42, %2
  %9 = load ptr, ptr %3, align 8, !tbaa !46
  %10 = icmp ne ptr %9, null
  br i1 %10, label %11, label %40

11:                                               ; preds = %8
  %12 = load ptr, ptr %3, align 8, !tbaa !46
  %13 = getelementptr inbounds nuw %struct.ARG_list, ptr %12, i32 0, i32 2
  %14 = getelementptr inbounds [0 x i8], ptr %13, i64 0, i64 0
  %15 = load ptr, ptr %4, align 8, !tbaa !10
  %16 = load i64, ptr %5, align 8, !tbaa !47
  %17 = call i32 @strncmp(ptr noundef %14, ptr noundef %15, i64 noundef %16) #17
  %18 = icmp eq i32 0, %17
  br i1 %18, label %19, label %37

19:                                               ; preds = %11
  %20 = load ptr, ptr %3, align 8, !tbaa !46
  %21 = getelementptr inbounds nuw %struct.ARG_list, ptr %20, i32 0, i32 2
  %22 = load i64, ptr %5, align 8, !tbaa !47
  %23 = getelementptr inbounds nuw [0 x i8], ptr %21, i64 0, i64 %22
  %24 = load i8, ptr %23, align 1, !tbaa !48
  %25 = sext i8 %24 to i32
  %26 = icmp eq i32 0, %25
  br i1 %26, label %35, label %27

27:                                               ; preds = %19
  %28 = load ptr, ptr %3, align 8, !tbaa !46
  %29 = getelementptr inbounds nuw %struct.ARG_list, ptr %28, i32 0, i32 2
  %30 = load i64, ptr %5, align 8, !tbaa !47
  %31 = getelementptr inbounds nuw [0 x i8], ptr %29, i64 0, i64 %30
  %32 = load i8, ptr %31, align 1, !tbaa !48
  %33 = sext i8 %32 to i32
  %34 = icmp eq i32 %33, 61
  br label %35

35:                                               ; preds = %27, %19
  %36 = phi i1 [ true, %19 ], [ %34, %27 ]
  br label %37

37:                                               ; preds = %35, %11
  %38 = phi i1 [ false, %11 ], [ %36, %35 ]
  %39 = xor i1 %38, true
  br label %40

40:                                               ; preds = %37, %8
  %41 = phi i1 [ false, %8 ], [ %39, %37 ]
  br i1 %41, label %42, label %46

42:                                               ; preds = %40
  %43 = load ptr, ptr %3, align 8, !tbaa !46
  %44 = getelementptr inbounds nuw %struct.ARG_list, ptr %43, i32 0, i32 0
  %45 = load ptr, ptr %44, align 8, !tbaa !46
  store ptr %45, ptr %3, align 8, !tbaa !46
  br label %8, !llvm.loop !49

46:                                               ; preds = %40
  %47 = load ptr, ptr %3, align 8, !tbaa !46
  call void @llvm.lifetime.end.p0(i64 8, ptr %5) #16
  ret ptr %47
}

; Function Attrs: mustprogress uwtable
define internal noundef i32 @_ZL10ellps_sizeP8PJconsts(ptr noundef %0) #0 {
  %2 = alloca i32, align 4
  %3 = alloca ptr, align 8
  %4 = alloca ptr, align 8
  %5 = alloca i32, align 4
  %6 = alloca i32, align 4
  store ptr %0, ptr %3, align 8, !tbaa !3
  call void @llvm.lifetime.start.p0(i64 8, ptr %4) #16
  store ptr null, ptr %4, align 8, !tbaa !46
  call void @llvm.lifetime.start.p0(i64 4, ptr %5) #16
  store i32 0, ptr %5, align 4, !tbaa !8
  %7 = load ptr, ptr %3, align 8, !tbaa !3
  %8 = getelementptr inbounds nuw %struct.PJconsts, ptr %7, i32 0, i32 6
  %9 = load ptr, ptr %8, align 8, !tbaa !12
  call void @free(ptr noundef %9) #16
  %10 = load ptr, ptr %3, align 8, !tbaa !3
  %11 = getelementptr inbounds nuw %struct.PJconsts, ptr %10, i32 0, i32 6
  store ptr null, ptr %11, align 8, !tbaa !12
  %12 = load ptr, ptr %3, align 8, !tbaa !3
  %13 = getelementptr inbounds nuw %struct.PJconsts, ptr %12, i32 0, i32 21
  %14 = load double, ptr %13, align 8, !tbaa !43
  %15 = fcmp une double %14, 0.000000e+00
  br i1 %15, label %16, label %17

16:                                               ; preds = %1
  store i32 1, ptr %5, align 4, !tbaa !8
  br label %17

17:                                               ; preds = %16, %1
  %18 = load ptr, ptr %3, align 8, !tbaa !3
  %19 = getelementptr inbounds nuw %struct.PJconsts, ptr %18, i32 0, i32 3
  %20 = load ptr, ptr %19, align 8, !tbaa !42
  %21 = call noundef ptr @_ZL12pj_get_paramP8ARG_listPKc(ptr noundef %20, ptr noundef @.str.1)
  store ptr %21, ptr %4, align 8, !tbaa !46
  %22 = load ptr, ptr %4, align 8, !tbaa !46
  %23 = icmp eq ptr null, %22
  br i1 %23, label %24, label %29

24:                                               ; preds = %17
  %25 = load ptr, ptr %3, align 8, !tbaa !3
  %26 = getelementptr inbounds nuw %struct.PJconsts, ptr %25, i32 0, i32 3
  %27 = load ptr, ptr %26, align 8, !tbaa !42
  %28 = call noundef ptr @_ZL12pj_get_paramP8ARG_listPKc(ptr noundef %27, ptr noundef @.str.8)
  store ptr %28, ptr %4, align 8, !tbaa !46
  br label %29

29:                                               ; preds = %24, %17
  %30 = load ptr, ptr %4, align 8, !tbaa !46
  %31 = icmp eq ptr null, %30
  br i1 %31, label %32, label %46

32:                                               ; preds = %29
  %33 = load i32, ptr %5, align 4, !tbaa !8
  %34 = icmp ne i32 %33, 0
  br i1 %34, label %35, label %36

35:                                               ; preds = %32
  store i32 0, ptr %2, align 4
  store i32 1, ptr %6, align 4
  br label %99

36:                                               ; preds = %32
  %37 = load ptr, ptr %3, align 8, !tbaa !3
  %38 = getelementptr inbounds nuw %struct.PJconsts, ptr %37, i32 0, i32 47
  %39 = load i32, ptr %38, align 8, !tbaa !51
  %40 = icmp ne i32 %39, 0
  br i1 %40, label %41, label %43

41:                                               ; preds = %36
  %42 = load ptr, ptr %3, align 8, !tbaa !3
  call void (ptr, ptr, ...) @_Z14proj_log_errorPK8PJconstsPKcz(ptr noundef %42, ptr noundef @.str.9)
  br label %43

43:                                               ; preds = %41, %36
  %44 = load ptr, ptr %3, align 8, !tbaa !3
  %45 = call i32 @proj_errno_set(ptr noundef %44, i32 noundef 1026)
  store i32 %45, ptr %2, align 4
  store i32 1, ptr %6, align 4
  br label %99

46:                                               ; preds = %29
  %47 = load ptr, ptr %4, align 8, !tbaa !46
  %48 = getelementptr inbounds nuw %struct.ARG_list, ptr %47, i32 0, i32 2
  %49 = getelementptr inbounds [0 x i8], ptr %48, i64 0, i64 0
  %50 = call noundef ptr @_Z9pj_strdupPKc(ptr noundef %49)
  %51 = load ptr, ptr %3, align 8, !tbaa !3
  %52 = getelementptr inbounds nuw %struct.PJconsts, ptr %51, i32 0, i32 6
  store ptr %50, ptr %52, align 8, !tbaa !12
  %53 = load ptr, ptr %4, align 8, !tbaa !46
  %54 = getelementptr inbounds nuw %struct.ARG_list, ptr %53, i32 0, i32 1
  store i8 1, ptr %54, align 8, !tbaa !48
  %55 = load ptr, ptr %4, align 8, !tbaa !46
  %56 = call noundef ptr @_ZL14pj_param_valueP8ARG_list(ptr noundef %55)
  %57 = call noundef double @_Z7pj_atofPKc(ptr noundef %56)
  %58 = load ptr, ptr %3, align 8, !tbaa !3
  %59 = getelementptr inbounds nuw %struct.PJconsts, ptr %58, i32 0, i32 21
  store double %57, ptr %59, align 8, !tbaa !43
  %60 = load ptr, ptr %3, align 8, !tbaa !3
  %61 = getelementptr inbounds nuw %struct.PJconsts, ptr %60, i32 0, i32 21
  %62 = load double, ptr %61, align 8, !tbaa !43
  %63 = fcmp ole double %62, 0.000000e+00
  br i1 %63, label %64, label %68

64:                                               ; preds = %46
  %65 = load ptr, ptr %3, align 8, !tbaa !3
  call void (ptr, ptr, ...) @_Z14proj_log_errorPK8PJconstsPKcz(ptr noundef %65, ptr noundef @.str.10)
  %66 = load ptr, ptr %3, align 8, !tbaa !3
  %67 = call i32 @proj_errno_set(ptr noundef %66, i32 noundef 1027)
  store i32 %67, ptr %2, align 4
  store i32 1, ptr %6, align 4
  br label %99

68:                                               ; preds = %46
  %69 = load ptr, ptr %3, align 8, !tbaa !3
  %70 = getelementptr inbounds nuw %struct.PJconsts, ptr %69, i32 0, i32 21
  %71 = load double, ptr %70, align 8, !tbaa !43
  %72 = fcmp oeq double 0x7FF0000000000000, %71
  br i1 %72, label %73, label %77

73:                                               ; preds = %68
  %74 = load ptr, ptr %3, align 8, !tbaa !3
  call void (ptr, ptr, ...) @_Z14proj_log_errorPK8PJconstsPKcz(ptr noundef %74, ptr noundef @.str.10)
  %75 = load ptr, ptr %3, align 8, !tbaa !3
  %76 = call i32 @proj_errno_set(ptr noundef %75, i32 noundef 1027)
  store i32 %76, ptr %2, align 4
  store i32 1, ptr %6, align 4
  br label %99

77:                                               ; preds = %68
  %78 = load ptr, ptr %4, align 8, !tbaa !46
  %79 = getelementptr inbounds nuw %struct.ARG_list, ptr %78, i32 0, i32 2
  %80 = getelementptr inbounds [0 x i8], ptr %79, i64 0, i64 0
  %81 = load i8, ptr %80, align 1, !tbaa !48
  %82 = sext i8 %81 to i32
  %83 = icmp eq i32 82, %82
  br i1 %83, label %84, label %98

84:                                               ; preds = %77
  %85 = load ptr, ptr %3, align 8, !tbaa !3
  %86 = getelementptr inbounds nuw %struct.PJconsts, ptr %85, i32 0, i32 37
  store double 0.000000e+00, ptr %86, align 8, !tbaa !52
  %87 = load ptr, ptr %3, align 8, !tbaa !3
  %88 = getelementptr inbounds nuw %struct.PJconsts, ptr %87, i32 0, i32 26
  store double 0.000000e+00, ptr %88, align 8, !tbaa !53
  %89 = load ptr, ptr %3, align 8, !tbaa !3
  %90 = getelementptr inbounds nuw %struct.PJconsts, ptr %89, i32 0, i32 34
  store double 0.000000e+00, ptr %90, align 8, !tbaa !45
  %91 = load ptr, ptr %3, align 8, !tbaa !3
  %92 = getelementptr inbounds nuw %struct.PJconsts, ptr %91, i32 0, i32 27
  store double 0.000000e+00, ptr %92, align 8, !tbaa !44
  %93 = load ptr, ptr %3, align 8, !tbaa !3
  %94 = getelementptr inbounds nuw %struct.PJconsts, ptr %93, i32 0, i32 21
  %95 = load double, ptr %94, align 8, !tbaa !43
  %96 = load ptr, ptr %3, align 8, !tbaa !3
  %97 = getelementptr inbounds nuw %struct.PJconsts, ptr %96, i32 0, i32 22
  store double %95, ptr %97, align 8, !tbaa !54
  br label %98

98:                                               ; preds = %84, %77
  store i32 0, ptr %2, align 4
  store i32 1, ptr %6, align 4
  br label %99

99:                                               ; preds = %98, %73, %64, %43, %35
  call void @llvm.lifetime.end.p0(i64 4, ptr %5) #16
  call void @llvm.lifetime.end.p0(i64 8, ptr %4) #16
  %100 = load i32, ptr %2, align 4
  ret i32 %100
}