; Function Attrs: mustprogress uwtable
define internal fastcc noundef i32 @_ZL10ellps_sizeP8PJconsts(ptr noundef %0) unnamed_addr #0 {
  %2 = getelementptr inbounds nuw i8, ptr %0, i64 48
  %3 = load ptr, ptr %2, align 8, !tbaa !3
  tail call void @free(ptr noundef %3) #15
  store ptr null, ptr %2, align 8, !tbaa !3
  %4 = getelementptr inbounds nuw i8, ptr %0, i64 168
  %5 = load double, ptr %4, align 8, !tbaa !44
  %6 = fcmp oeq double %5, 0.000000e+00
  %7 = getelementptr inbounds nuw i8, ptr %0, i64 24
  %8 = load ptr, ptr %7, align 8, !tbaa !39
  %.not13.i = icmp eq ptr %8, null
  br i1 %.not13.i, label %.thread, label %.lr.ph.i

.lr.ph.i:                                         ; preds = %1, %.critedge12.i
  %.014.i = phi ptr [ %14, %.critedge12.i ], [ %8, %1 ]
  %9 = getelementptr inbounds nuw i8, ptr %.014.i, i64 9
  %lhsc = load i8, ptr %9, align 1
  %10 = icmp eq i8 %lhsc, 82
  br i1 %10, label %11, label %.critedge12.i

11:                                               ; preds = %.lr.ph.i
  %12 = getelementptr inbounds nuw i8, ptr %.014.i, i64 10
  %13 = load i8, ptr %12, align 1, !tbaa !40
  switch i8 %13, label %.critedge12.i [
    i8 61, label %_ZL14pj_param_valueP8ARG_list.exit
    i8 0, label %_ZL14pj_param_valueP8ARG_list.exit
  ]

.critedge12.i:                                    ; preds = %11, %.lr.ph.i
  %14 = load ptr, ptr %.014.i, align 8, !tbaa !41
  %.not.i = icmp eq ptr %14, null
  br i1 %.not.i, label %.lr.ph.i34, label %.lr.ph.i, !llvm.loop !42

.lr.ph.i34:                                       ; preds = %.critedge12.i, %.critedge12.i36
  %.014.i35 = phi ptr [ %20, %.critedge12.i36 ], [ %8, %.critedge12.i ]
  %15 = getelementptr inbounds nuw i8, ptr %.014.i35, i64 9
  %lhsc45 = load i8, ptr %15, align 1
  %16 = icmp eq i8 %lhsc45, 97
  br i1 %16, label %17, label %.critedge12.i36

17:                                               ; preds = %.lr.ph.i34
  %18 = getelementptr inbounds nuw i8, ptr %.014.i35, i64 10
  %19 = load i8, ptr %18, align 1, !tbaa !40
  switch i8 %19, label %.critedge12.i36 [
    i8 61, label %_ZL14pj_param_valueP8ARG_list.exit
    i8 0, label %_ZL14pj_param_valueP8ARG_list.exit
  ]

.critedge12.i36:                                  ; preds = %17, %.lr.ph.i34
  %20 = load ptr, ptr %.014.i35, align 8, !tbaa !41
  %.not.i37 = icmp eq ptr %20, null
  br i1 %.not.i37, label %.thread, label %.lr.ph.i34, !llvm.loop !42

.thread:                                          ; preds = %.critedge12.i36, %1
  br i1 %6, label %21, label %49

21:                                               ; preds = %.thread
  %22 = getelementptr inbounds nuw i8, ptr %0, i64 360
  %23 = load i32, ptr %22, align 8, !tbaa !71
  %.not = icmp eq i32 %23, 0
  br i1 %.not, label %25, label %24

24:                                               ; preds = %21
  tail call void (ptr, ptr, ...) @_Z14proj_log_errorPK8PJconstsPKcz(ptr noundef nonnull %0, ptr noundef nonnull @.str.9)
  br label %25

25:                                               ; preds = %24, %21
  %26 = tail call i32 @proj_errno_set(ptr noundef nonnull %0, i32 noundef 1026)
  br label %49

_ZL14pj_param_valueP8ARG_list.exit:               ; preds = %11, %11, %17, %17
  %.029 = phi ptr [ %.014.i35, %17 ], [ %.014.i35, %17 ], [ %.014.i, %11 ], [ %.014.i, %11 ]
  %27 = getelementptr inbounds nuw i8, ptr %.029, i64 9
  %28 = tail call noundef ptr @_Z9pj_strdupPKc(ptr noundef nonnull %27)
  store ptr %28, ptr %2, align 8, !tbaa !3
  %29 = getelementptr inbounds nuw i8, ptr %.029, i64 8
  store i8 1, ptr %29, align 8, !tbaa !40
  %30 = tail call noundef ptr @strchr(ptr noundef nonnull readonly dereferenceable(1) %27, i32 noundef 61) #16
  %.not.i40 = icmp eq ptr %30, null
  %31 = getelementptr inbounds nuw i8, ptr %30, i64 1
  %32 = select i1 %.not.i40, ptr %27, ptr %31
  %33 = tail call noundef double @_Z7pj_atofPKc(ptr noundef nonnull %32)
  store double %33, ptr %4, align 8, !tbaa !44
  %34 = fcmp ugt double %33, 0.000000e+00
  br i1 %34, label %37, label %35

35:                                               ; preds = %_ZL14pj_param_valueP8ARG_list.exit
  tail call void (ptr, ptr, ...) @_Z14proj_log_errorPK8PJconstsPKcz(ptr noundef nonnull %0, ptr noundef nonnull @.str.10)
  %36 = tail call i32 @proj_errno_set(ptr noundef nonnull %0, i32 noundef 1027)
  br label %49

37:                                               ; preds = %_ZL14pj_param_valueP8ARG_list.exit
  %38 = fcmp oeq double %33, 0x7FF0000000000000
  br i1 %38, label %39, label %41

39:                                               ; preds = %37
  tail call void (ptr, ptr, ...) @_Z14proj_log_errorPK8PJconstsPKcz(ptr noundef nonnull %0, ptr noundef nonnull @.str.10)
  %40 = tail call i32 @proj_errno_set(ptr noundef nonnull %0, i32 noundef 1027)
  br label %49

41:                                               ; preds = %37
  %42 = load i8, ptr %27, align 1, !tbaa !40
  %43 = icmp eq i8 %42, 82
  br i1 %43, label %44, label %49

44:                                               ; preds = %41
  %45 = getelementptr inbounds nuw i8, ptr %0, i64 296
  store double 0.000000e+00, ptr %45, align 8, !tbaa !65
  %46 = getelementptr inbounds nuw i8, ptr %0, i64 208
  %47 = getelementptr inbounds nuw i8, ptr %0, i64 272
  store double 0.000000e+00, ptr %47, align 8, !tbaa !62
  %48 = getelementptr inbounds nuw i8, ptr %0, i64 176
  tail call void @llvm.memset.p0.i64(ptr noundef nonnull align 8 dereferenceable(16) %46, i8 0, i64 16, i1 false)
  store double %33, ptr %48, align 8, !tbaa !50
  br label %49

49:                                               ; preds = %41, %44, %.thread, %39, %35, %25
  %.030 = phi i32 [ %26, %25 ], [ %36, %35 ], [ %40, %39 ], [ 0, %.thread ], [ 0, %44 ], [ 0, %41 ]
  ret i32 %.030
}